target datalayout = "e-m:e-p270:32:32-p271:32:32-p272:64:64-i64:64-i128:128-f80:128-n8:16:32:64-S128"
target triple = "x86_64-pc-linux-gnu"

%"class.icu_77::RelativeDateTimeCacheData" = type { %"class.icu_77::SharedObject", [3 x [15 x [6 x %"class.icu_77::UnicodeString"]]], [3 x [15 x [2 x [8 x ptr]]]], %"class.icu_77::UnicodeString", [3 x i32], ptr }
%"class.icu_77::SharedObject" = type { %"class.icu_77::UObject", i32, %"struct.std::atomic", ptr }
%"class.icu_77::UObject" = type { ptr }
%"struct.std::atomic" = type { %"struct.std::__atomic_base" }
%"struct.std::__atomic_base" = type { i32 }
%"class.icu_77::UnicodeString" = type { %"class.icu_77::Replaceable", %"union.icu_77::UnicodeString::StackBufferOrFields" }
%"class.icu_77::Replaceable" = type { %"class.icu_77::UObject" }
%"union.icu_77::UnicodeString::StackBufferOrFields" = type { %struct.anon.0, [32 x i8] }
%struct.anon.0 = type { i16, i32, i32, ptr }

; Function Attrs: inlinehint mustprogress nounwind uwtable
define linkonce_odr noundef signext i8 @_ZNK6icu_7713UnicodeString7isEmptyEv(ptr noundef nonnull align 8 dereferenceable(64) %0) #2 comdat align 2 {
  %2 = alloca ptr, align 8
  store ptr %0, ptr %2, align 8, !tbaa !47
  %3 = load ptr, ptr %2, align 8
  %4 = getelementptr inbounds nuw %"class.icu_77::UnicodeString", ptr %3, i32 0, i32 1
  %5 = getelementptr inbounds nuw %struct.anon.0, ptr %4, i32 0, i32 0
  %6 = load i16, ptr %5, align 8, !tbaa !49
  %7 = sext i16 %6 to i32
  %8 = ashr i32 %7, 5
  %9 = icmp eq i32 %8, 0
  %10 = zext i1 %9 to i8
  ret i8 %10
}

; Function Attrs: mustprogress uwtable
define noundef nonnull align 8 dereferenceable(64) ptr @_ZNK6icu_7725RelativeDateTimeCacheData21getAbsoluteUnitStringEi17UDateAbsoluteUnit14UDateDirection(ptr noundef nonnull align 8 dereferenceable(23152) %0, i32 noundef %1, i32 noundef %2, i32 noundef %3) #1 align 2 {
  %5 = alloca ptr, align 8
  %6 = alloca ptr, align 8
  %7 = alloca i32, align 4
  %8 = alloca i32, align 4
  %9 = alloca i32, align 4
  %10 = alloca i32, align 4
  %11 = alloca i32, align 4
  store ptr %0, ptr %6, align 8, !tbaa !23
  store i32 %1, ptr %7, align 4, !tbaa !14
  store i32 %2, ptr %8, align 4, !tbaa !42
  store i32 %3, ptr %9, align 4, !tbaa !44
  %12 = load ptr, ptr %6, align 8
  call void @llvm.lifetime.start.p0(i64 4, ptr %10) #12
  %13 = load i32, ptr %7, align 4, !tbaa !14
  store i32 %13, ptr %10, align 4, !tbaa !14
  br label %14

14:                                               ; preds = %44, %4
  %15 = getelementptr inbounds nuw %"class.icu_77::RelativeDateTimeCacheData", ptr %12, i32 0, i32 1
  %16 = load i32, ptr %10, align 4, !tbaa !14
  %17 = sext i32 %16 to i64
  %18 = getelementptr inbounds [3 x [15 x [6 x %"class.icu_77::UnicodeString"]]], ptr %15, i64 0, i64 %17
  %19 = load i32, ptr %8, align 4, !tbaa !42
  %20 = zext i32 %19 to i64
  %21 = getelementptr inbounds nuw [15 x [6 x %"class.icu_77::UnicodeString"]], ptr %18, i64 0, i64 %20
  %22 = load i32, ptr %9, align 4, !tbaa !44
  %23 = zext i32 %22 to i64
  %24 = getelementptr inbounds nuw [6 x %"class.icu_77::UnicodeString"], ptr %21, i64 0, i64 %23
  %25 = call noundef signext i8 @_ZNK6icu_7713UnicodeString7isEmptyEv(ptr noundef nonnull align 8 dereferenceable(64) %24)
  %26 = icmp ne i8 %25, 0
  br i1 %26, label %38, label %27

27:                                               ; preds = %14
  %28 = getelementptr inbounds nuw %"class.icu_77::RelativeDateTimeCacheData", ptr %12, i32 0, i32 1
  %29 = load i32, ptr %10, align 4, !tbaa !14
  %30 = sext i32 %29 to i64
  %31 = getelementptr inbounds [3 x [15 x [6 x %"class.icu_77::UnicodeString"]]], ptr %28, i64 0, i64 %30
  %32 = load i32, ptr %8, align 4, !tbaa !42
  %33 = zext i32 %32 to i64
  %34 = getelementptr inbounds nuw [15 x [6 x %"class.icu_77::UnicodeString"]], ptr %31, i64 0, i64 %33
  %35 = load i32, ptr %9, align 4, !tbaa !44
  %36 = zext i32 %35 to i64
  %37 = getelementptr inbounds nuw [6 x %"class.icu_77::UnicodeString"], ptr %34, i64 0, i64 %36
  store ptr %37, ptr %5, align 8
  store i32 1, ptr %11, align 4
  br label %49

38:                                               ; preds = %14
  %39 = getelementptr inbounds nuw %"class.icu_77::RelativeDateTimeCacheData", ptr %12, i32 0, i32 4
  %40 = load i32, ptr %10, align 4, !tbaa !14
  %41 = sext i32 %40 to i64
  %42 = getelementptr inbounds [3 x i32], ptr %39, i64 0, i64 %41
  %43 = load i32, ptr %42, align 4, !tbaa !14
  store i32 %43, ptr %10, align 4, !tbaa !14
  br label %44

44:                                               ; preds = %38
  %45 = load i32, ptr %10, align 4, !tbaa !14
  %46 = icmp ne i32 %45, -1
  br i1 %46, label %14, label %47, !llvm.loop !46

47:                                               ; preds = %44
  %48 = getelementptr inbounds nuw %"class.icu_77::RelativeDateTimeCacheData", ptr %12, i32 0, i32 3
  store ptr %48, ptr %5, align 8
  store i32 1, ptr %11, align 4
  br label %49

49:                                               ; preds = %47, %27
  call void @llvm.lifetime.end.p0(i64 4, ptr %10) #12
  %50 = load ptr, ptr %5, align 8
  ret ptr %50
}