; Function Attrs: mustprogress nofree norecurse nosync nounwind willreturn memory(argmem: read) uwtable
define noundef nonnull align 8 dereferenceable(64) ptr @_ZNK6icu_7725RelativeDateTimeCacheData21getAbsoluteUnitStringEi17UDateAbsoluteUnit14UDateDirection(ptr noundef nonnull readonly align 8 dereferenceable(23152) %0, i32 noundef %1, i32 noundef %2, i32 noundef %3) local_unnamed_addr #11 align 2 {
  %5 = getelementptr inbounds nuw i8, ptr %0, i64 24
  %6 = zext i32 %2 to i64
  %7 = zext i32 %3 to i64
  %8 = getelementptr inbounds nuw i8, ptr %0, i64 23128
  br label %9

9:                                                ; preds = %15, %4
  %.0 = phi i32 [ %1, %4 ], [ %17, %15 ]
  %10 = sext i32 %.0 to i64
  %11 = getelementptr inbounds [3 x [15 x [6 x %"class.icu_77::UnicodeString"]]], ptr %5, i64 0, i64 %10, i64 %6, i64 %7
  %12 = getelementptr inbounds nuw i8, ptr %11, i64 8
  %13 = load i16, ptr %12, align 8, !tbaa !32
  %14 = icmp ugt i16 %13, 31
  br i1 %14, label %.loopexit, label %15

15:                                               ; preds = %9
  %16 = getelementptr inbounds [3 x i32], ptr %8, i64 0, i64 %10
  %17 = load i32, ptr %16, align 4, !tbaa !12
  %.not12 = icmp eq i32 %17, -1
  br i1 %.not12, label %18, label %9, !llvm.loop !33

18:                                               ; preds = %15
  %19 = getelementptr inbounds nuw i8, ptr %0, i64 23064
  br label %.loopexit

.loopexit:                                        ; preds = %9, %18
  %.010 = phi ptr [ %19, %18 ], [ %11, %9 ]
  ret ptr %.010
}